target datalayout = "e-m:e-p270:32:32-p271:32:32-p272:64:64-i64:64-i128:128-f80:128-n8:16:32:64-S128"
target triple = "x86_64-pc-linux-gnu"

; Function Attrs: nounwind uwtable
define hidden void @aom_convolve_copy_c(ptr noundef %0, i64 noundef %1, ptr noundef %2, i64 noundef %3, i32 noundef %4, i32 noundef %5) #0 {
  %7 = alloca ptr, align 8
  %8 = alloca i64, align 8
  %9 = alloca ptr, align 8
  %10 = alloca i64, align 8
  %11 = alloca i32, align 4
  %12 = alloca i32, align 4
  %13 = alloca i32, align 4
  store ptr %0, ptr %7, align 8
  store i64 %1, ptr %8, align 8
  store ptr %2, ptr %9, align 8
  store i64 %3, ptr %10, align 8
  store i32 %4, ptr %11, align 4
  store i32 %5, ptr %12, align 4
  %14 = load i32, ptr %12, align 4
  store i32 %14, ptr %13, align 4
  br label %15

15:                                               ; preds = %29, %6
  %16 = load i32, ptr %13, align 4
  %17 = icmp sgt i32 %16, 0
  br i1 %17, label %18, label %32

18:                                               ; preds = %15
  %19 = load ptr, ptr %9, align 8
  %20 = load ptr, ptr %7, align 8
  %21 = load i32, ptr %11, align 4
  %22 = sext i32 %21 to i64
  call void @llvm.memmove.p0.p0.i64(ptr align 1 %19, ptr align 1 %20, i64 %22, i1 false)
  %23 = load i64, ptr %8, align 8
  %24 = load ptr, ptr %7, align 8
  %25 = getelementptr inbounds i8, ptr %24, i64 %23
  store ptr %25, ptr %7, align 8
  %26 = load i64, ptr %10, align 8
  %27 = load ptr, ptr %9, align 8
  %28 = getelementptr inbounds i8, ptr %27, i64 %26
  store ptr %28, ptr %9, align 8
  br label %29

29:                                               ; preds = %18
  %30 = load i32, ptr %13, align 4
  %31 = add nsw i32 %30, -1
  store i32 %31, ptr %13, align 4
  br label %15, !llvm.loop !9

32:                                               ; preds = %15
  ret void
}