; Function Attrs: nofree norecurse nosync nounwind memory(argmem: readwrite) uwtable
define hidden void @aom_convolve_copy_c(ptr nocapture noundef readonly %0, i64 noundef %1, ptr nocapture noundef writeonly %2, i64 noundef %3, i32 noundef %4, i32 noundef %5) local_unnamed_addr #1 {
  %7 = icmp sgt i32 %5, 0
  br i1 %7, label %.lr.ph, label %._crit_edge

.lr.ph:                                           ; preds = %6
  %8 = sext i32 %4 to i64
  br label %9

9:                                                ; preds = %.lr.ph, %9
  %.013 = phi i32 [ %5, %.lr.ph ], [ %12, %9 ]
  %.0912 = phi ptr [ %0, %.lr.ph ], [ %10, %9 ]
  %.01011 = phi ptr [ %2, %.lr.ph ], [ %11, %9 ]
  tail call void @llvm.memmove.p0.p0.i64(ptr align 1 %.01011, ptr align 1 %.0912, i64 %8, i1 false)
  %10 = getelementptr inbounds i8, ptr %.0912, i64 %1
  %11 = getelementptr inbounds i8, ptr %.01011, i64 %3
  %12 = add nsw i32 %.013, -1
  %13 = icmp ugt i32 %.013, 1
  br i1 %13, label %9, label %._crit_edge, !llvm.loop !11

._crit_edge:                                      ; preds = %9, %6
  ret void
}